
Discarded input sections

 .reginfo       0x00000000       0x18 build/src/MENU/MENUB.PRG/260.o
 .MIPS.abiflags
                0x00000000       0x18 build/src/MENU/MENUB.PRG/260.o
 .pdr           0x00000000      0x720 build/src/MENU/MENUB.PRG/260.o
 .gnu.attributes
                0x00000000       0x10 build/src/MENU/MENUB.PRG/260.o

Memory Configuration

Name             Origin             Length             Attributes
*default*        0x00000000         0xffffffff

Linker script and memory map

LOAD build/src/MENU/MENUB.PRG/260.o
                0x00007ec4                        __romPos = 0x0
                0x80033674                        _gp = 0x80033674
                0x00000000                        _0_ROM_START = __romPos
                0x80102800                        _0_VRAM = ADDR (._0)

._0             0x80102800     0x7ec4 load address 0x00000000
 FILL mask 0x00000000
                0x80102800                        _0_RODATA_START = .
 build/src/MENU/MENUB.PRG/260.o(.rodata)
 .rodata        0x80102800      0x260 build/src/MENU/MENUB.PRG/260.o
                0x80102a60                        . = ALIGN (., 0x4)
                0x80102a60                        _0_RODATA_END = .
                0x00000260                        _0_RODATA_SIZE = ABSOLUTE ((_0_RODATA_END - _0_RODATA_START))
                0x80102a60                        _0_TEXT_START = .
 build/src/MENU/MENUB.PRG/260.o(.text)
 .text          0x80102a60     0x7820 build/src/MENU/MENUB.PRG/260.o
                0x8010837c                _displayInventoryCapacities
                0x801086f4                _applyLootList
                0x801090a4                _discardItems
                0x80109750                _processLootMenu
                0x80109e90                vs_menuB_exec
                0x8010a280                        . = ALIGN (., 0x4)
                0x8010a280                        _0_TEXT_END = .
                0x00007820                        _0_TEXT_SIZE = ABSOLUTE ((_0_TEXT_END - _0_TEXT_START))
                0x8010a280                        _0_DATA_START = .
 build/src/MENU/MENUB.PRG/260.o(.data)
 .data          0x8010a280      0x36b build/src/MENU/MENUB.PRG/260.o
                0x8010a5ec                        . = ALIGN (., 0x4)
 *fill*         0x8010a5eb        0x1 00000000
                0x8010a5ec                        _0_DATA_END = .
                0x0000036c                        _0_DATA_SIZE = ABSOLUTE ((_0_DATA_END - _0_DATA_START))
                0x8010a5ec                        _0_BSS_START = .
 build/src/MENU/MENUB.PRG/260.o(.bss)
 .bss           0x8010a5ec       0xd8 build/src/MENU/MENUB.PRG/260.o
                0x8010a5ec                state.18
                0x8010a5ed                initRow.19
                0x8010a5ee                itemRow.20
                0x8010a5ef                itemIndex.21
                0x8010a5f0                _.22
                0x8010a5f1                state.25
                0x8010a5f2                animationTimer.26
                0x8010a5f3                itemRow.27
                0x8010a5f4                itemIndex.28
                0x8010a5f5                state.32
                0x8010a5f6                animationTimer.33
                0x8010a5f7                itemRow.34
                0x8010a5f8                itemIndex.35
                0x8010a5f9                _.36
                0x8010a5fa                state.39
                0x8010a5fb                initRow.40
                0x8010a5fc                itemRow.41
                0x8010a5fd                itemIndex.42
                0x8010a5fe                _.43
                0x8010a5ff                status.46
                0x8010a600                animationTimer.47
                0x8010a601                itemRow.48
                0x8010a602                itemIndex.49
                0x8010a603                state.52
                0x8010a604                animationTimer.53
                0x8010a605                itemRow.54
                0x8010a606                itemIndex.55
                0x8010a607                itemCategory.59
                0x8010a608                state.88
                0x8010a609                itemCategory.89
                0x8010a60a                state.95
                0x8010a60b                itemCategory.96
                0x8010a60c                selectedItem.97
                0x8010a60d                discardType.98
                0x8010a60e                discardStep.99
                0x8010a60f                discardCount.100
                0x8010a610                maxAmount.101
                0x8010a611                _.102
                0x8010a614                availableActions.115
                0x8010a61c                state.116
                0x8010a61d                noItems.117
                0x8010a61e                D_8010A61E.118
                0x8010a61f                _.119
                0x8010a620                selectedRow.120
                0x8010a624                projectionDistance.125
                0x8010a628                _.126
                0x8010a62c                viewMatrixBackup.127
                0x8010a64c                cameraBackup.128
                0x8010a680                state.131
                0x8010a681                D_8010A681.132
                0x8010a682                state.136
                0x8010a683                D_8010A683.137
                0x8010a684                D_8010A684.138
                0x8010a685                targetItemIndex.139
                0x8010a686                disassembleItemCategory.140
                0x8010a687                _.141
                0x8010a688                D_8010A688.145
                0x8010a68a                D_8010A68A.146
                0x8010a68c                itemId.147
                0x8010a68e                state.148
                0x8010a68f                D_8010A68F.149
                0x8010a690                lootCount.150
                0x8010a691                state.186
                0x8010a692                D_8010A692.187
                0x8010a693                _.188
                0x8010a694                itemName.189
                0x8010a698                state.193
                0x8010a699                itemCategory.194
                0x8010a69a                selectedRow.195
                0x8010a69b                availableAction.196
                0x8010a69c                state.200
                0x8010a69d                D_8010A69D.201
                0x8010a69e                D_8010A69E.204
                0x8010a69f                _.205
                0x8010a6a0                _lootList
                0x8010a6ac                _inventoryBackup
                0x8010a6b1                _inventoryCapacityFlyinTimer
                0x8010a6b3                _lootLeftEdge
                0x8010a6b4                _selectedLoot
                0x8010a6b5                _lootListOffset
                0x8010a6b6                _lootListCount
                0x8010a6b9                _secondaryTitleEnabled
                0x8010a6ba                _itemCategoryIconsEnabled
                0x8010a6bb                _statusCommandState
                0x8010a6bc                _secondaryTitleAnimationStep
                0x8010a6bd                _itemCategoryIconsAnimationStep
                0x8010a6be                _statusCommandAnimationStep
                0x8010a6bf                _selectedItemCategoryIconOnTop
                0x8010a6c4                        . = ALIGN (., 0x4)
                0x8010a6c4                        _0_BSS_END = .
                0x000000d8                        _0_BSS_SIZE = ABSOLUTE ((_0_BSS_END - _0_BSS_START))
                0x00007ec4                        __romPos = (__romPos + SIZEOF (._0))
                0x00007ec4                        __romPos = ALIGN (__romPos, 0x4)
                0x8010a6c4                        . = ALIGN (., 0x4)
                0x00007ec4                        _0_ROM_END = __romPos
                0x8010a6c4                        _0_VRAM_END = .

/DISCARD/
 *(*)
                0x80026eb4                        memset = 0x80026eb4
                0x80040f24                        rcos = 0x80040f24
                0x80040f28                        rsin = 0x80040f28
                0x80043c60                        vs_main_freeHeapR = 0x80043c60
                0x80043e3c                        vs_main_allocHeapR = 0x80043e3c
                0x80045988                        vs_main_playSfxDefault = 0x80045988
                0x8006ab44                        vs_battle_copyInventoryBladeStats = 0x8006ab44
                0x8006ac74                        vs_battle_copyInventoryGripStats = 0x8006ac74
                0x8006acfc                        vs_battle_copyInventoryArmorStats = 0x8006acfc
                0x8006ae0c                        vs_battle_copyInventoryGemStats = 0x8006ae0c
                0x8006aeac                        vs_battle_applyWeapon = 0x8006aeac
                0x8006b02c                        vs_battle_applyShield = 0x8006b02c
                0x8007acb0                        func_8007ACB0 = 0x8007acb0
                0x8007ccf0                        vs_battle_setProjectionDistance = 0x8007ccf0
                0x8008a4dc                        func_8008A4DC = 0x8008a4dc
                0x8008a6fc                        func_8008A6FC = 0x8008a6fc
                0x800bec14                        vs_battle_setStateFlag = 0x800bec14
                0x800c01c0                        vs_battle_copyAligned = 0x800c01c0
                0x800c01e0                        vs_battle_memcpy = 0x800c01e0
                0x800c0214                        vs_battle_setSpriteDefault = 0x800c0214
                0x800c0224                        vs_battle_setSpriteDefaultTexPage = 0x800c0224
                0x800c02d8                        vs_battle_playSfx10 = 0x800c02d8
                0x800c02e0                        vs_battle_playInvalidSfx = 0x800c02e0
                0x800c02e8                        vs_battle_playMenuLeaveSfx = 0x800c02e8
                0x800c02f0                        vs_battle_playMenuSelectSfx = 0x800c02f0
                0x800c02f8                        vs_battle_playMenuChangeSfx = 0x800c02f8
                0x800c6540                        vs_battle_renderTextRawColor = 0x800c6540
                0x800c6828                        vs_battle_renderTextRaw = 0x800c6828
                0x800c70f8                        vs_battle_printVariableWidthFontChar = 0x800c70f8
                0x800c7210                        vs_battle_setFontStyle = 0x800c7210
                0x800c8e04                        vs_battle_initInformationTextBox = 0x800c8e04
                0x800c8e48                        vs_battle_getMenuItem = 0x800c8e48
                0x800c8e5c                        vs_battle_setMenuItem = 0x800c8e5c
                0x800cb654                        func_800CB654 = 0x800cb654
                0x800ccc1c                        vs_battle_rMemzero = 0x800ccc1c
                0x800ccc34                        vs_battle_rMemcpy = 0x800ccc34
                0x800ccc54                        vs_battle_toBCD = 0x800ccc54
                0x800ccd40                        vs_battle_drawCursor = 0x800ccd40
                0x800cd064                        vs_battle_dismissTextBox = 0x800cd064
                0x800f9a24                        func_800F9A24 = 0x800f9a24
                0x800f9e0c                        func_800F9E0C = 0x800f9e0c
                0x800f9eb8                        func_800F9EB8 = 0x800f9eb8
                0x800fa810                        vs_mainMenu_menuItemFlyoutLeft = 0x800fa810
                0x800fa854                        vs_mainMenu_flyoutLeftExcept = 0x800fa854
                0x800fa8a0                        vs_mainMenu_menuItemFlyoutRight = 0x800fa8a0
                0x800fa8e0                        vs_mainMenu_clearMenuExcept = 0x800fa8e0
                0x800fa9d0                        vs_mainmenu_ready = 0x800fa9d0
                0x800fbbd4                        vs_mainMenu_drawClassAffinityType = 0x800fbbd4
                0x800fbd80                        func_800FBD80 = 0x800fbd80
                0x800fbea4                        vs_mainMenu_renderEquipStats = 0x800fbea4
                0x800fc268                        vs_mainMenu_drawDpPpbars = 0x800fc268
                0x800fc510                        vs_mainMenu_initWeaponDetailsMenu = 0x800fc510
                0x800fc704                        vs_mainMenu_initSetShieldGemMenu = 0x800fc704
                0x800fca08                        vs_mainMenu_initUiWeapon = 0x800fca08
                0x800fcaa4                        vs_mainMenu_setUiBlade = 0x800fcaa4
                0x800fcc0c                        vs_mainMenu_setUiGrip = 0x800fcc0c
                0x800fce40                        vs_mainMenu_initUiShield = 0x800fce40
                0x800fd084                        vs_mainMenu_initUiArmor = 0x800fd084
                0x800fd0e0                        vs_mainMenu_setUiGem = 0x800fd0e0
                0x800fd17c                        vs_mainMenu_setUiItem = 0x800fd17c
                0x800fd270                        vs_mainMenu_setUiWeaponStats = 0x800fd270
                0x800fd404                        vs_mainMenu_setUiBladeStats = 0x800fd404
                0x800fd504                        vs_mainMenu_setUiGripStats = 0x800fd504
                0x800fd5a0                        vs_mainMenu_setShieldStats = 0x800fd5a0
                0x800fd700                        vs_mainMenu_setArmorStats = 0x800fd700
                0x800fd878                        vs_mainMenu_setGemStats = 0x800fd878
                0x800fdd78                        func_800FDD78 = 0x800fdd78
                0x800fdebc                        func_800FDEBC = 0x800fdebc
                0x800fe3e0                        vs_mainMenu_initItem = 0x800fe3e0
                0x800fe5cc                        vs_mainMenu_loadItemNames = 0x800fe5cc
                0x800fe694                        vs_mainMenu_ensureItemNamesLoaded = 0x800fe694
                0x800fe7e0                        vs_mainMenu_findItem = 0x800fe7e0
                0x800fe8b0                        vs_mainMenu_rebuildInventory = 0x800fe8b0
                0x800fea6c                        vs_mainMenu_getItemCount = 0x800fea6c
                0x800feb94                        vs_mainMenu_copyItem = 0x800feb94
                0x800ff0ec                        vs_mainMenu_initSortUi = 0x800ff0ec
                0x800ff348                        func_800FF348 = 0x800ff348
                0x800ff360                        vs_mainMenu_getSelectedItemAction = 0x800ff360
                0x800ff43c                        vs_mainMenu_processItemActionMenu = 0x800ff43c
                0x800ff9e4                        vs_mainMenu_printInformation = 0x800ff9e4
                0x800ffa88                        vs_mainMenu_setNextMenuAction = 0x800ffa88
                0x800ffb68                        func_800FFB68 = 0x800ffb68
                0x800ffba8                        vs_mainMenu_dismissTextBox = 0x800ffba8
                0x800ffbc8                        vs_mainMenu_initTextBox = 0x800ffbc8
                0x800ffc04                        vs_mainmenu_setInformationMessage = 0x800ffc04
                0x800ffc68                        vs_mainmenu_drawButton = 0x800ffc68
                0x800ffcdc                        vs_mainMenu_renderCursor = 0x800ffcdc
                0x800ffd64                        vs_mainMenu_renderIntColor = 0x800ffd64
                0x80100004                        vs_mainMenu_drawRowIcon = 0x80100004
                0x80100344                        vs_mainMenu_drawButtonUiBackground = 0x80100344
                0x80100414                        func_80100414 = 0x80100414
                0x801005e0                        vs_mainmenu_setMenuRows = 0x801005e0
                0x80100814                        func_80100814 = 0x80100814
                0x801008c8                        vs_mainmenu_getSelectedRow = 0x801008c8
                0x80100a5c                        func_80100A5C = 0x80100a5c
                0x801013f8                        func_801013F8 = 0x801013f8
                0x1f800000                        D_1F800000 = 0x1f800000
                0x1f800014                        D_1F800014_mat = 0x1f800014
                0x1f800034                        D_1F800034 = 0x1f800034
                0x8005dfdc                        vs_main_buttonRepeat = 0x8005dfdc
                0x8005e1d0                        vs_main_buttonsPressed = 0x8005e1d0
                0x8005e238                        vs_main_buttonsState = 0x8005e238
                0x8005e248                        vs_main_projectionDistance = 0x8005e248
                0x80060020                        vs_main_settings = 0x80060020
                0x80060028                        D_80060028 = 0x80060028
                0x80060148                        D_80060148 = 0x80060148
                0x80060168                        vs_battle_inventory = 0x80060168
                0x80060238                        D_80060238 = 0x80060238
                0x80060268                        D_80060268 = 0x80060268
                0x800603bc                        D_800603BC = 0x800603bc
                0x800603e8                        D_800603E8 = 0x800603e8
                0x80060698                        D_80060698 = 0x80060698
                0x800606a8                        D_800606A8 = 0x800606a8
                0x80060780                        D_80060780 = 0x80060780
                0x800607a8                        D_800607A8 = 0x800607a8
                0x80060a0c                        D_80060A0C = 0x80060a0c
                0x80060a28                        D_80060A28 = 0x80060a28
                0x80060f68                        D_80060F68 = 0x80060f68
                0x80061598                        vs_main_stateFlags = 0x80061598
                0x800619d8                        vs_main_inventoryIndices = 0x800619d8
                0x80061a00                        D_80061A00 = 0x80061a00
                0x80061a48                        D_80061A48 = 0x80061a48
                0x800eb9af                        D_800EB9AF = 0x800eb9af
                0x800eb9b0                        D_800EB9B0 = 0x800eb9b0
                0x800eb9c4                        D_800EB9C4 = 0x800eb9c4
                0x800eb9c8                        D_800EB9C8 = 0x800eb9c8
                0x800eb9dc                        vs_battle_menuStrings = 0x800eb9dc
                0x800ebbc8                        vs_battle_rowAnimationSteps = 0x800ebbc8
                0x800f4538                        D_800F4538 = 0x800f4538
                0x800f4e84                        vs_battle_rowTypeBuf = 0x800f4e84
                0x800f4e8c                        vs_battle_stringBuf = 0x800f4e8c
                0x800f4e98                        D_800F4E98 = 0x800f4e98
                0x800f4ee8                        D_800F4EE8 = 0x800f4ee8
                0x800f4fe0                        vs_battle_textBoxes = 0x800f4fe0
                0x800f5168                        vs_battle_stringContext = 0x800f5168
                0x8010229c                        vs_mainMenu_itemNames = 0x8010229c
                0x801022a0                        vs_mainMenu_inventoryItemCapacities = 0x801022a0
                0x801022a8                        vs_mainMenu_inventoryIndices = 0x801022a8
                0x801022c4                        D_801022C4 = 0x801022c4
                0x801022d5                        D_801022D5 = 0x801022d5
                0x801023d0                        D_801023D0 = 0x801023d0
                0x801023e3                        D_801023E3 = 0x801023e3
                0x801024b8                        D_801024B8 = 0x801024b8
                0x80102540                        vs_mainMenu_itemHelp = 0x80102540
                0x80102808                        jtbl_80102808 = 0x80102808
                0x80102838                        jtbl_80102838 = 0x80102838
                0x80102860                        jtbl_80102860 = 0x80102860
                0x80102890                        jtbl_80102890 = 0x80102890
                0x801028b0                        jtbl_801028B0 = 0x801028b0
                0x801028d0                        jtbl_801028D0 = 0x801028d0
                0x80102904                        D_80102904 = 0x80102904
                0x80102910                        jtbl_80102910 = 0x80102910
                0x80102930                        jtbl_80102930 = 0x80102930
                0x80102988                        jtbl_80102988 = 0x80102988
                0x801029a4                        D_801029A4 = 0x801029a4
                0x801029b0                        D_801029B0 = 0x801029b0
                0x801029b4                        D_801029B4 = 0x801029b4
                0x801029b8                        D_801029B8 = 0x801029b8
                0x801029bc                        D_801029BC = 0x801029bc
                0x801029c0                        jtbl_801029C0 = 0x801029c0
                0x801029e0                        jtbl_801029E0 = 0x801029e0
                0x80102a00                        jtbl_80102A00 = 0x80102a00
                0x80102a20                        jtbl_80102A20 = 0x80102a20
                0x80102a48                        jtbl_80102A48 = 0x80102a48
                0x8010a280                        _menuText = 0x8010a280
                0x8010a2c4                        D_8010A2C4 = 0x8010a2c4
                0x8010a30a                        D_8010A30A = 0x8010a30a
                0x8010a30e                        D_8010A30E = 0x8010a30e
                0x8010a342                        D_8010A342 = 0x8010a342
                0x8010a37a                        D_8010A37A = 0x8010a37a
                0x8010a3b6                        D_8010A3B6 = 0x8010a3b6
                0x8010a3fc                        D_8010A3FC = 0x8010a3fc
                0x8010a410                        D_8010A410 = 0x8010a410
                0x8010a440                        D_8010A440 = 0x8010a440
                0x8010a4b0                        D_8010A4B0 = 0x8010a4b0
                0x8010a504                        D_8010A504 = 0x8010a504
                0x8010a505                        D_8010A505 = 0x8010a505
                0x8010a508                        D_8010A508 = 0x8010a508
                0x8010a50c                        D_8010A50C = 0x8010a50c
                0x8010a510                        D_8010A510 = 0x8010a510
                0x8010a514                        D_8010A514 = 0x8010a514
                0x8010a52c                        D_8010A52C = 0x8010a52c
                0x8010a54c                        D_8010A54C = 0x8010a54c
                0x8010a58c                        D_8010A58C = 0x8010a58c
                0x8010a590                        D_8010A590 = 0x8010a590
                0x8010a598                        D_8010A598 = 0x8010a598
                0x8010a5b4                        D_8010A5B4 = 0x8010a5b4
                0x8010a5c0                        D_8010A5C0 = 0x8010a5c0
                0x8010a5c3                        D_8010A5C3 = 0x8010a5c3
                0x8010a5c4                        D_8010A5C4 = 0x8010a5c4
                0x8010a5c8                        D_8010A5C8 = 0x8010a5c8
                0x8010a5c9                        D_8010A5C9 = 0x8010a5c9
                0x8010a5ca                        D_8010A5CA = 0x8010a5ca
                0x8010a5cc                        D_8010A5CC = 0x8010a5cc
                0x8010a5e8                        D_8010A5E8 = 0x8010a5e8
                0x8010a5e9                        D_8010A5E9 = 0x8010a5e9
                0x8010a5ea                        D_8010A5EA = 0x8010a5ea
                0x8010a5ec                        D_8010A5EC = 0x8010a5ec
                0x8010a5ed                        D_8010A5ED = 0x8010a5ed
                0x8010a5ee                        D_8010A5EE = 0x8010a5ee
                0x8010a5ef                        D_8010A5EF = 0x8010a5ef
                0x8010a5f0                        D_8010A5F0 = 0x8010a5f0
                0x8010a5f1                        D_8010A5F1 = 0x8010a5f1
                0x8010a5f2                        D_8010A5F2 = 0x8010a5f2
                0x8010a5f3                        D_8010A5F3 = 0x8010a5f3
                0x8010a5f4                        D_8010A5F4 = 0x8010a5f4
                0x8010a5f5                        D_8010A5F5 = 0x8010a5f5
                0x8010a5f6                        D_8010A5F6 = 0x8010a5f6
                0x8010a5f7                        D_8010A5F7 = 0x8010a5f7
                0x8010a5f8                        D_8010A5F8 = 0x8010a5f8
                0x8010a5f9                        D_8010A5F9 = 0x8010a5f9
                0x8010a5fa                        D_8010A5FA = 0x8010a5fa
                0x8010a5fb                        D_8010A5FB = 0x8010a5fb
                0x8010a5fc                        D_8010A5FC = 0x8010a5fc
                0x8010a5fd                        D_8010A5FD = 0x8010a5fd
                0x8010a5fe                        D_8010A5FE = 0x8010a5fe
                0x8010a5ff                        D_8010A5FF = 0x8010a5ff
                0x8010a600                        D_8010A600 = 0x8010a600
                0x8010a601                        D_8010A601 = 0x8010a601
                0x8010a602                        D_8010A602 = 0x8010a602
                0x8010a603                        D_8010A603 = 0x8010a603
                0x8010a604                        D_8010A604 = 0x8010a604
                0x8010a605                        D_8010A605 = 0x8010a605
                0x8010a606                        D_8010A606 = 0x8010a606
                0x8010a607                        D_8010A607 = 0x8010a607
                0x8010a608                        D_8010A608 = 0x8010a608
                0x8010a609                        D_8010A609 = 0x8010a609
                0x8010a60a                        D_8010A60A = 0x8010a60a
                0x8010a60b                        D_8010A60B = 0x8010a60b
                0x8010a60c                        D_8010A60C = 0x8010a60c
                0x8010a60d                        D_8010A60D = 0x8010a60d
                0x8010a60e                        D_8010A60E = 0x8010a60e
                0x8010a60f                        D_8010A60F = 0x8010a60f
                0x8010a610                        D_8010A610 = 0x8010a610
                0x8010a614                        D_8010A614 = 0x8010a614
                0x8010a615                        D_8010A615 = 0x8010a615
                0x8010a61c                        D_8010A61C = 0x8010a61c
                0x8010a61d                        D_8010A61D = 0x8010a61d
                0x8010a61e                        D_8010A61E = 0x8010a61e
                0x8010a620                        D_8010A620 = 0x8010a620
                0x8010a624                        D_8010A624 = 0x8010a624
                0x8010a62c                        D_8010A62C = 0x8010a62c
                0x8010a64c                        D_8010A64C = 0x8010a64c
                0x8010a680                        D_8010A680 = 0x8010a680
                0x8010a681                        D_8010A681 = 0x8010a681
                0x8010a682                        D_8010A682 = 0x8010a682
                0x8010a683                        D_8010A683 = 0x8010a683
                0x8010a684                        D_8010A684 = 0x8010a684
                0x8010a685                        D_8010A685 = 0x8010a685
                0x8010a686                        D_8010A686 = 0x8010a686
                0x8010a688                        D_8010A688 = 0x8010a688
                0x8010a68a                        D_8010A68A = 0x8010a68a
                0x8010a68c                        D_8010A68C = 0x8010a68c
                0x8010a68e                        D_8010A68E = 0x8010a68e
                0x8010a68f                        D_8010A68F = 0x8010a68f
                0x8010a690                        D_8010A690 = 0x8010a690
                0x8010a691                        D_8010A691 = 0x8010a691
                0x8010a692                        D_8010A692 = 0x8010a692
                0x8010a694                        D_8010A694 = 0x8010a694
                0x8010a698                        D_8010A698 = 0x8010a698
                0x8010a699                        D_8010A699 = 0x8010a699
                0x8010a69a                        D_8010A69A = 0x8010a69a
                0x8010a69b                        D_8010A69B = 0x8010a69b
                0x8010a69c                        D_8010A69C = 0x8010a69c
                0x8010a69d                        D_8010A69D = 0x8010a69d
                0x8010a69e                        D_8010A69E = 0x8010a69e
                0x8010a6a0                        D_8010A6A0 = 0x8010a6a0
                0x8010a6a4                        D_8010A6A4 = 0x8010a6a4
                0x8010a6a8                        _inventory = 0x8010a6a8
                0x8010a6ac                        D_8010A6AC = 0x8010a6ac
                0x8010a6b0                        D_8010A6B0 = 0x8010a6b0
                0x8010a6b1                        D_8010A6B1 = 0x8010a6b1
                0x8010a6b2                        D_8010A6B2 = 0x8010a6b2
                0x8010a6b3                        D_8010A6B3 = 0x8010a6b3
                0x8010a6b4                        D_8010A6B4 = 0x8010a6b4
                0x8010a6b5                        D_8010A6B5 = 0x8010a6b5
                0x8010a6b6                        D_8010A6B6 = 0x8010a6b6
                0x8010a6b7                        D_8010A6B7 = 0x8010a6b7
                0x8010a6b8                        D_8010A6B8 = 0x8010a6b8
                0x8010a6b9                        D_8010A6B9 = 0x8010a6b9
                0x8010a6ba                        D_8010A6BA = 0x8010a6ba
                0x8010a6bb                        D_8010A6BB = 0x8010a6bb
                0x8010a6bc                        D_8010A6BC = 0x8010a6bc
                0x8010a6bd                        D_8010A6BD = 0x8010a6bd
                0x8010a6be                        D_8010A6BE = 0x8010a6be
                0x8010a6bf                        D_8010A6BF = 0x8010a6bf
                0x8010a6c0                        _exitToBattle = 0x8010a6c0
OUTPUT(build/data/MENU/MENUB.PRG.elf elf32-tradlittlemips)
